; Function Attrs: mustprogress nounwind uwtable
define void @_ZN5osgeo4proj2cs20CoordinateSystemAxisD2Ev(ptr noundef nonnull align 8 dereferenceable(56) %0) unnamed_addr #3 align 2 personality ptr @__gxx_personality_v0 {
  %2 = getelementptr inbounds nuw i8, ptr %0, i64 48
  %3 = load ptr, ptr %2, align 8, !tbaa !41
  %.not.i = icmp eq ptr %3, null
  br i1 %.not.i, label %_ZNSt10unique_ptrIN5osgeo4proj2cs20CoordinateSystemAxis7PrivateESt14default_deleteIS4_EED2Ev.exit, label %4

4:                                                ; preds = %1
  tail call void @_ZNKSt14default_deleteIN5osgeo4proj2cs20CoordinateSystemAxis7PrivateEEclEPS4_(ptr noundef nonnull align 8 dereferenceable(8) %2, ptr noundef nonnull %3)
  br label %_ZNSt10unique_ptrIN5osgeo4proj2cs20CoordinateSystemAxis7PrivateESt14default_deleteIS4_EED2Ev.exit

_ZNSt10unique_ptrIN5osgeo4proj2cs20CoordinateSystemAxis7PrivateESt14default_deleteIS4_EED2Ev.exit: ; preds = %1, %4
  store ptr null, ptr %2, align 8, !tbaa !41
  %5 = getelementptr inbounds nuw i8, ptr %0, i64 40
  tail call void @_ZN5osgeo4proj2io15IJSONExportableD2Ev(ptr noundef nonnull align 8 dereferenceable(8) %5) #33
  tail call void @_ZN5osgeo4proj6common16IdentifiedObjectD2Ev(ptr noundef nonnull align 8 dereferenceable(40) %0) #33
  ret void
}